; Function Attrs: mustprogress nofree nounwind memory(readwrite, inaccessiblemem: write) uwtable
define noundef double @_ZNK5Ipopt11DenseVector11SumLogsImplEv(ptr nocapture noundef nonnull readonly align 8 dereferenceable(248) %0) unnamed_addr #9 align 2 {
  %2 = getelementptr inbounds i8, ptr %0, i64 56
  %3 = load ptr, ptr %2, align 8
  %4 = getelementptr inbounds i8, ptr %3, i64 12
  %5 = load i32, ptr %4, align 4
  %6 = icmp eq i32 %5, 0
  br i1 %6, label %.loopexit, label %7

7:                                                ; preds = %1
  %8 = getelementptr inbounds i8, ptr %0, i64 233
  %9 = load i8, ptr %8, align 1
  %10 = and i8 %9, 1
  %.not = icmp eq i8 %10, 0
  br i1 %.not, label %.preheader, label %13

.preheader:                                       ; preds = %7
  %11 = icmp sgt i32 %5, 0
  br i1 %11, label %.lr.ph, label %.loopexit

.lr.ph:                                           ; preds = %.preheader
  %12 = getelementptr inbounds i8, ptr %0, i64 216
  br label %19

13:                                               ; preds = %7
  %14 = sitofp i32 %5 to double
  %15 = getelementptr inbounds i8, ptr %0, i64 240
  %16 = load double, ptr %15, align 8
  %17 = tail call double @log(double noundef %16) #15
  %18 = fmul double %17, %14
  br label %.loopexit

19:                                               ; preds = %.lr.ph, %19
  %indvars.iv = phi i64 [ 0, %.lr.ph ], [ %indvars.iv.next, %19 ]
  %.056 = phi double [ 0.000000e+00, %.lr.ph ], [ %24, %19 ]
  %20 = load ptr, ptr %12, align 8
  %21 = getelementptr inbounds double, ptr %20, i64 %indvars.iv
  %22 = load double, ptr %21, align 8
  %23 = tail call double @log(double noundef %22) #15
  %24 = fadd double %.056, %23
  %indvars.iv.next = add nuw nsw i64 %indvars.iv, 1
  %25 = load ptr, ptr %2, align 8
  %26 = getelementptr inbounds i8, ptr %25, i64 12
  %27 = load i32, ptr %26, align 4
  %28 = sext i32 %27 to i64
  %29 = icmp slt i64 %indvars.iv.next, %28
  br i1 %29, label %19, label %.loopexit, !llvm.loop !29

.loopexit:                                        ; preds = %19, %.preheader, %1, %13
  %.1 = phi double [ %18, %13 ], [ 0.000000e+00, %1 ], [ 0.000000e+00, %.preheader ], [ %24, %19 ]
  ret double %.1
}